; Function Attrs: nounwind uwtable
define hidden void @ec_GFp_simple_point_finish(ptr noundef %0) local_unnamed_addr #0 {
  %2 = getelementptr inbounds nuw i8, ptr %0, i64 8
  tail call void @BN_free(ptr noundef nonnull %2) #5
  %3 = getelementptr inbounds nuw i8, ptr %0, i64 32
  tail call void @BN_free(ptr noundef nonnull %3) #5
  %4 = getelementptr inbounds nuw i8, ptr %0, i64 56
  tail call void @BN_free(ptr noundef nonnull %4) #5
  ret void
}